(dp0
S'ALG_DESC'
p1
VThis script computes a concave hull with the method of alpha-shape and gives a shapfile with lines of the concave hull.
p2
sS'ALG_CREATOR'
p3
VJEANDENANS L.
p4
sS'Layer'
p5
VInput vector with points
p6
sS'ALG_HELP_CREATOR'
p7
VJEANDENANS L.
p8
sS'Output'
p9
Va shapefile with the concave hull
p10
sS'alpha'
p11
Va number >0
p12
s.