(dp0
S'ALG_DESC'
p1
VThis script does an ANalysis Of VAriance (ANOVA) and gives the summary of the test.
p2
sS'ALG_CREATOR'
p3
VJEANDENANS L.
p4
sS'Field3'
p5
VThe third field
p6
sS'Field1'
p7
VThe first field
p8
sS'Layer'
p9
VInput vector with at least 5 numerics fields.
p10
sS'Field4'
p11
VThe fourth field
p12
sS'Field5'
p13
VThe fifth field
p14
sS'Field2'
p15
VThe second field
p16
sS'ALG_HELP_CREATOR'
p17
VJEANDENANS L.
p18
s.