(dp0
S'distance'
p1
Vdegree of simplification: the limit distance between the simplificated line and points of polygon.
p2
sS'ALG_DESC'
p3
VThis script is the algorithm of Douglas-Peucker and gives simplificated lines.
p4
sS'Output2'
p5
Va shapfile with the simplification of outline
p6
sS'Output1'
p7
Va shapfile with the simplification of border
p8
sS'Layer'
p9
VInput vector with polygons
p10
sS'ALG_CREATOR'
p11
VJEANDENANS L.
p12
sS'ALG_HELP_CREATOR'
p13
VJEANDENANS L.
p14
s.