(dp0
S'ALG_DESC'
p1
VThis script extracts coordinates of all points of a line
p2
sS'ALG_CREATOR'
p3
VJEANDENANS L.
p4
sS'Layer'
p5
VInput vector with lines
p6
sS'ALG_HELP_CREATOR'
p7
VJEANDENANS L.
p8
sS'Output'
p9
Va shapefile with these points
p10
sS'nombre'
p11
Vnumber of the line which we want the coordinates
p12
s.