(dp0
S'ALG_DESC'
p1
VThis script does a kriging with the best variogram which is selecd with the function auto.Krige and gives a raster of the spatial interpolation. Fields can be numerics or not because in the script, there is a coding to numeric.
p2
sS'ALG_CREATOR'
p3
VJEANDENANS L.
p4
sS'Layer'
p5
VInput vector
p6
sS'Field'
p7
Vthe field
p8
sS'ALG_HELP_CREATOR'
p9
VJEANDENANS L.
p10
sS'Output'
p11
Va raster of the kriging
p12
sS'by'
p13
Vthe pixel size
p14
s.